target datalayout = "e-m:e-p270:32:32-p271:32:32-p272:64:64-i64:64-i128:128-f80:128-n8:16:32:64-S128"
target triple = "x86_64-unknown-linux-gnu"

%"class.QuantLib::Date" = type { i64 }

; Function Attrs: inlinehint mustprogress uwtable
define linkonce_odr noundef i32 @_ZNK8QuantLib4Date9dayOfYearEv(ptr noundef nonnull align 8 dereferenceable(8) %this) #5 comdat align 2 {
entry:
  %this.addr = alloca ptr, align 8
  store ptr %this, ptr %this.addr, align 8, !tbaa !3
  %this1 = load ptr, ptr %this.addr, align 8
  %serialNumber_ = getelementptr inbounds nuw %"class.QuantLib::Date", ptr %this1, i32 0, i32 0
  %0 = load i64, ptr %serialNumber_, align 8, !tbaa !18
  %call = call noundef i32 @_ZNK8QuantLib4Date4yearEv(ptr noundef nonnull align 8 dereferenceable(8) %this1)
  %call2 = call noundef i64 @_ZN8QuantLib4Date10yearOffsetEi(i32 noundef %call)
  %sub = sub nsw i64 %0, %call2
  %conv = trunc i64 %sub to i32
  ret i32 %conv
}

; Function Attrs: mustprogress nounwind uwtable
define internal noundef zeroext i1 @_ZN8QuantLib12_GLOBAL__N_110isLaborDayEiNS_5MonthEiNS_7WeekdayE(i32 noundef %d, i32 noundef %m, i32 noundef %y, i32 noundef %w) #1 {
entry:
  %d.addr = alloca i32, align 4
  %m.addr = alloca i32, align 4
  %y.addr = alloca i32, align 4
  %w.addr = alloca i32, align 4
  store i32 %d, ptr %d.addr, align 4, !tbaa !14
  store i32 %m, ptr %m.addr, align 4, !tbaa !16
  store i32 %y, ptr %y.addr, align 4, !tbaa !14
  store i32 %w, ptr %w.addr, align 4, !tbaa !12
  %0 = load i32, ptr %d.addr, align 4, !tbaa !14
  %cmp = icmp sle i32 %0, 7
  br i1 %cmp, label %land.lhs.true, label %land.end

land.lhs.true:                                    ; preds = %entry
  %1 = load i32, ptr %w.addr, align 4, !tbaa !12
  %cmp1 = icmp eq i32 %1, 2
  br i1 %cmp1, label %land.rhs, label %land.end

land.rhs:                                         ; preds = %land.lhs.true
  %2 = load i32, ptr %m.addr, align 4, !tbaa !16
  %cmp2 = icmp eq i32 %2, 9
  br label %land.end

land.end:                                         ; preds = %land.rhs, %land.lhs.true, %entry
  %3 = phi i1 [ false, %land.lhs.true ], [ false, %entry ], [ %cmp2, %land.rhs ]
  ret i1 %3
}

; Function Attrs: mustprogress nounwind uwtable
define internal noundef zeroext i1 @_ZN8QuantLib12_GLOBAL__N_113isMemorialDayEiNS_5MonthEiNS_7WeekdayE(i32 noundef %d, i32 noundef %m, i32 noundef %y, i32 noundef %w) #1 {
entry:
  %retval = alloca i1, align 1
  %d.addr = alloca i32, align 4
  %m.addr = alloca i32, align 4
  %y.addr = alloca i32, align 4
  %w.addr = alloca i32, align 4
  store i32 %d, ptr %d.addr, align 4, !tbaa !14
  store i32 %m, ptr %m.addr, align 4, !tbaa !16
  store i32 %y, ptr %y.addr, align 4, !tbaa !14
  store i32 %w, ptr %w.addr, align 4, !tbaa !12
  %0 = load i32, ptr %y.addr, align 4, !tbaa !14
  %cmp = icmp sge i32 %0, 1971
  br i1 %cmp, label %if.then, label %if.else

if.then:                                          ; preds = %entry
  %1 = load i32, ptr %d.addr, align 4, !tbaa !14
  %cmp1 = icmp sge i32 %1, 25
  br i1 %cmp1, label %land.lhs.true, label %land.end

land.lhs.true:                                    ; preds = %if.then
  %2 = load i32, ptr %w.addr, align 4, !tbaa !12
  %cmp2 = icmp eq i32 %2, 2
  br i1 %cmp2, label %land.rhs, label %land.end

land.rhs:                                         ; preds = %land.lhs.true
  %3 = load i32, ptr %m.addr, align 4, !tbaa !16
  %cmp3 = icmp eq i32 %3, 5
  br label %land.end

land.end:                                         ; preds = %land.rhs, %land.lhs.true, %if.then
  %4 = phi i1 [ false, %land.lhs.true ], [ false, %if.then ], [ %cmp3, %land.rhs ]
  store i1 %4, ptr %retval, align 1
  br label %return

if.else:                                          ; preds = %entry
  %5 = load i32, ptr %d.addr, align 4, !tbaa !14
  %cmp4 = icmp eq i32 %5, 30
  br i1 %cmp4, label %land.rhs12, label %lor.lhs.false

lor.lhs.false:                                    ; preds = %if.else
  %6 = load i32, ptr %d.addr, align 4, !tbaa !14
  %cmp5 = icmp eq i32 %6, 31
  br i1 %cmp5, label %land.lhs.true6, label %lor.lhs.false8

land.lhs.true6:                                   ; preds = %lor.lhs.false
  %7 = load i32, ptr %w.addr, align 4, !tbaa !12
  %cmp7 = icmp eq i32 %7, 2
  br i1 %cmp7, label %land.rhs12, label %lor.lhs.false8

lor.lhs.false8:                                   ; preds = %land.lhs.true6, %lor.lhs.false
  %8 = load i32, ptr %d.addr, align 4, !tbaa !14
  %cmp9 = icmp eq i32 %8, 29
  br i1 %cmp9, label %land.lhs.true10, label %land.end14

land.lhs.true10:                                  ; preds = %lor.lhs.false8
  %9 = load i32, ptr %w.addr, align 4, !tbaa !12
  %cmp11 = icmp eq i32 %9, 6
  br i1 %cmp11, label %land.rhs12, label %land.end14

land.rhs12:                                       ; preds = %land.lhs.true10, %land.lhs.true6, %if.else
  %10 = load i32, ptr %m.addr, align 4, !tbaa !16
  %cmp13 = icmp eq i32 %10, 5
  br label %land.end14

land.end14:                                       ; preds = %land.rhs12, %land.lhs.true10, %lor.lhs.false8
  %11 = phi i1 [ false, %land.lhs.true10 ], [ false, %lor.lhs.false8 ], [ %cmp13, %land.rhs12 ]
  store i1 %11, ptr %retval, align 1
  br label %return

return:                                           ; preds = %land.end14, %land.end
  %12 = load i1, ptr %retval, align 1
  ret i1 %12
}

; Function Attrs: inlinehint mustprogress uwtable
define linkonce_odr noundef i32 @_ZNK8QuantLib4Date10dayOfMonthEv(ptr noundef nonnull align 8 dereferenceable(8) %this) #5 comdat align 2 {
entry:
  %this.addr = alloca ptr, align 8
  store ptr %this, ptr %this.addr, align 8, !tbaa !3
  %this1 = load ptr, ptr %this.addr, align 8
  %call = call noundef i32 @_ZNK8QuantLib4Date9dayOfYearEv(ptr noundef nonnull align 8 dereferenceable(8) %this1)
  %call2 = call noundef i32 @_ZNK8QuantLib4Date5monthEv(ptr noundef nonnull align 8 dereferenceable(8) %this1)
  %call3 = call noundef i32 @_ZNK8QuantLib4Date4yearEv(ptr noundef nonnull align 8 dereferenceable(8) %this1)
  %call4 = call noundef zeroext i1 @_ZN8QuantLib4Date6isLeapEi(i32 noundef %call3)
  %call5 = call noundef i32 @_ZN8QuantLib4Date11monthOffsetENS_5MonthEb(i32 noundef %call2, i1 noundef zeroext %call4)
  %sub = sub nsw i32 %call, %call5
  ret i32 %sub
}

; Function Attrs: inlinehint mustprogress nounwind uwtable
define linkonce_odr noundef i32 @_ZNK8QuantLib4Date7weekdayEv(ptr noundef nonnull align 8 dereferenceable(8) %this) #3 comdat align 2 {
entry:
  %this.addr = alloca ptr, align 8
  %w = alloca i32, align 4
  store ptr %this, ptr %this.addr, align 8, !tbaa !3
  %this1 = load ptr, ptr %this.addr, align 8
  call void @llvm.lifetime.start.p0(i64 4, ptr %w) #2
  %serialNumber_ = getelementptr inbounds nuw %"class.QuantLib::Date", ptr %this1, i32 0, i32 0
  %0 = load i64, ptr %serialNumber_, align 8, !tbaa !18
  %rem = srem i64 %0, 7
  %conv = trunc i64 %rem to i32
  store i32 %conv, ptr %w, align 4, !tbaa !14
  %1 = load i32, ptr %w, align 4, !tbaa !14
  %cmp = icmp eq i32 %1, 0
  br i1 %cmp, label %cond.true, label %cond.false

cond.true:                                        ; preds = %entry
  br label %cond.end

cond.false:                                       ; preds = %entry
  %2 = load i32, ptr %w, align 4, !tbaa !14
  br label %cond.end

cond.end:                                         ; preds = %cond.false, %cond.true
  %cond = phi i32 [ 7, %cond.true ], [ %2, %cond.false ]
  call void @llvm.lifetime.end.p0(i64 4, ptr %w) #2
  ret i32 %cond
}

; Function Attrs: mustprogress uwtable
define noundef zeroext i1 @_ZNK8QuantLib12UnitedStates8NercImpl13isBusinessDayERKNS_4DateE(ptr noundef nonnull align 8 dereferenceable(104) %this, ptr noundef nonnull align 8 dereferenceable(8) %date) unnamed_addr #0 align 2 {
entry:
  %retval = alloca i1, align 1
  %this.addr = alloca ptr, align 8
  %date.addr = alloca ptr, align 8
  %w = alloca i32, align 4
  %d = alloca i32, align 4
  %m = alloca i32, align 4
  %y = alloca i32, align 4
  %cleanup.dest.slot = alloca i32, align 4
  store ptr %this, ptr %this.addr, align 8, !tbaa !3
  store ptr %date, ptr %date.addr, align 8, !tbaa !3
  %this1 = load ptr, ptr %this.addr, align 8
  call void @llvm.lifetime.start.p0(i64 4, ptr %w) #2
  %0 = load ptr, ptr %date.addr, align 8, !tbaa !3
  %call = call noundef i32 @_ZNK8QuantLib4Date7weekdayEv(ptr noundef nonnull align 8 dereferenceable(8) %0)
  store i32 %call, ptr %w, align 4, !tbaa !12
  call void @llvm.lifetime.start.p0(i64 4, ptr %d) #2
  %1 = load ptr, ptr %date.addr, align 8, !tbaa !3
  %call2 = call noundef i32 @_ZNK8QuantLib4Date10dayOfMonthEv(ptr noundef nonnull align 8 dereferenceable(8) %1)
  store i32 %call2, ptr %d, align 4, !tbaa !14
  call void @llvm.lifetime.start.p0(i64 4, ptr %m) #2
  %2 = load ptr, ptr %date.addr, align 8, !tbaa !3
  %call3 = call noundef i32 @_ZNK8QuantLib4Date5monthEv(ptr noundef nonnull align 8 dereferenceable(8) %2)
  store i32 %call3, ptr %m, align 4, !tbaa !16
  call void @llvm.lifetime.start.p0(i64 4, ptr %y) #2
  %3 = load ptr, ptr %date.addr, align 8, !tbaa !3
  %call4 = call noundef i32 @_ZNK8QuantLib4Date4yearEv(ptr noundef nonnull align 8 dereferenceable(8) %3)
  store i32 %call4, ptr %y, align 4, !tbaa !14
  %4 = load i32, ptr %w, align 4, !tbaa !12
  %call5 = call noundef zeroext i1 @_ZNK8QuantLib8Calendar11WesternImpl9isWeekendENS_7WeekdayE(ptr noundef nonnull align 8 dereferenceable(104) %this1, i32 noundef %4)
  br i1 %call5, label %if.then, label %lor.lhs.false

lor.lhs.false:                                    ; preds = %entry
  %5 = load i32, ptr %d, align 4, !tbaa !14
  %cmp = icmp eq i32 %5, 1
  br i1 %cmp, label %land.lhs.true9, label %lor.lhs.false6

lor.lhs.false6:                                   ; preds = %lor.lhs.false
  %6 = load i32, ptr %d, align 4, !tbaa !14
  %cmp7 = icmp eq i32 %6, 2
  br i1 %cmp7, label %land.lhs.true, label %lor.lhs.false11

land.lhs.true:                                    ; preds = %lor.lhs.false6
  %7 = load i32, ptr %w, align 4, !tbaa !12
  %cmp8 = icmp eq i32 %7, 2
  br i1 %cmp8, label %land.lhs.true9, label %lor.lhs.false11

land.lhs.true9:                                   ; preds = %land.lhs.true, %lor.lhs.false
  %8 = load i32, ptr %m, align 4, !tbaa !16
  %cmp10 = icmp eq i32 %8, 1
  br i1 %cmp10, label %if.then, label %lor.lhs.false11

lor.lhs.false11:                                  ; preds = %land.lhs.true9, %land.lhs.true, %lor.lhs.false6
  %9 = load i32, ptr %d, align 4, !tbaa !14
  %10 = load i32, ptr %m, align 4, !tbaa !16
  %11 = load i32, ptr %y, align 4, !tbaa !14
  %12 = load i32, ptr %w, align 4, !tbaa !12
  %call12 = call noundef zeroext i1 @_ZN8QuantLib12_GLOBAL__N_113isMemorialDayEiNS_5MonthEiNS_7WeekdayE(i32 noundef %9, i32 noundef %10, i32 noundef %11, i32 noundef %12)
  br i1 %call12, label %if.then, label %lor.lhs.false13

lor.lhs.false13:                                  ; preds = %lor.lhs.false11
  %13 = load i32, ptr %d, align 4, !tbaa !14
  %cmp14 = icmp eq i32 %13, 4
  br i1 %cmp14, label %land.lhs.true19, label %lor.lhs.false15

lor.lhs.false15:                                  ; preds = %lor.lhs.false13
  %14 = load i32, ptr %d, align 4, !tbaa !14
  %cmp16 = icmp eq i32 %14, 5
  br i1 %cmp16, label %land.lhs.true17, label %lor.lhs.false21

land.lhs.true17:                                  ; preds = %lor.lhs.false15
  %15 = load i32, ptr %w, align 4, !tbaa !12
  %cmp18 = icmp eq i32 %15, 2
  br i1 %cmp18, label %land.lhs.true19, label %lor.lhs.false21

land.lhs.true19:                                  ; preds = %land.lhs.true17, %lor.lhs.false13
  %16 = load i32, ptr %m, align 4, !tbaa !16
  %cmp20 = icmp eq i32 %16, 7
  br i1 %cmp20, label %if.then, label %lor.lhs.false21

lor.lhs.false21:                                  ; preds = %land.lhs.true19, %land.lhs.true17, %lor.lhs.false15
  %17 = load i32, ptr %d, align 4, !tbaa !14
  %18 = load i32, ptr %m, align 4, !tbaa !16
  %19 = load i32, ptr %y, align 4, !tbaa !14
  %20 = load i32, ptr %w, align 4, !tbaa !12
  %call22 = call noundef zeroext i1 @_ZN8QuantLib12_GLOBAL__N_110isLaborDayEiNS_5MonthEiNS_7WeekdayE(i32 noundef %17, i32 noundef %18, i32 noundef %19, i32 noundef %20)
  br i1 %call22, label %if.then, label %lor.lhs.false23

lor.lhs.false23:                                  ; preds = %lor.lhs.false21
  %21 = load i32, ptr %d, align 4, !tbaa !14
  %cmp24 = icmp sge i32 %21, 22
  br i1 %cmp24, label %land.lhs.true25, label %lor.lhs.false31

land.lhs.true25:                                  ; preds = %lor.lhs.false23
  %22 = load i32, ptr %d, align 4, !tbaa !14
  %cmp26 = icmp sle i32 %22, 28
  br i1 %cmp26, label %land.lhs.true27, label %lor.lhs.false31

land.lhs.true27:                                  ; preds = %land.lhs.true25
  %23 = load i32, ptr %w, align 4, !tbaa !12
  %cmp28 = icmp eq i32 %23, 5
  br i1 %cmp28, label %land.lhs.true29, label %lor.lhs.false31

land.lhs.true29:                                  ; preds = %land.lhs.true27
  %24 = load i32, ptr %m, align 4, !tbaa !16
  %cmp30 = icmp eq i32 %24, 11
  br i1 %cmp30, label %if.then, label %lor.lhs.false31

lor.lhs.false31:                                  ; preds = %land.lhs.true29, %land.lhs.true27, %land.lhs.true25, %lor.lhs.false23
  %25 = load i32, ptr %d, align 4, !tbaa !14
  %cmp32 = icmp eq i32 %25, 25
  br i1 %cmp32, label %land.lhs.true37, label %lor.lhs.false33

lor.lhs.false33:                                  ; preds = %lor.lhs.false31
  %26 = load i32, ptr %d, align 4, !tbaa !14
  %cmp34 = icmp eq i32 %26, 26
  br i1 %cmp34, label %land.lhs.true35, label %if.end

land.lhs.true35:                                  ; preds = %lor.lhs.false33
  %27 = load i32, ptr %w, align 4, !tbaa !12
  %cmp36 = icmp eq i32 %27, 2
  br i1 %cmp36, label %land.lhs.true37, label %if.end

land.lhs.true37:                                  ; preds = %land.lhs.true35, %lor.lhs.false31
  %28 = load i32, ptr %m, align 4, !tbaa !16
  %cmp38 = icmp eq i32 %28, 12
  br i1 %cmp38, label %if.then, label %if.end

if.then:                                          ; preds = %land.lhs.true37, %land.lhs.true29, %lor.lhs.false21, %land.lhs.true19, %lor.lhs.false11, %land.lhs.true9, %entry
  store i1 false, ptr %retval, align 1
  store i32 1, ptr %cleanup.dest.slot, align 4
  br label %cleanup

if.end:                                           ; preds = %land.lhs.true37, %land.lhs.true35, %lor.lhs.false33
  store i1 true, ptr %retval, align 1
  store i32 1, ptr %cleanup.dest.slot, align 4
  br label %cleanup

cleanup:                                          ; preds = %if.end, %if.then
  call void @llvm.lifetime.end.p0(i64 4, ptr %y) #2
  call void @llvm.lifetime.end.p0(i64 4, ptr %m) #2
  call void @llvm.lifetime.end.p0(i64 4, ptr %d) #2
  call void @llvm.lifetime.end.p0(i64 4, ptr %w) #2
  %29 = load i1, ptr %retval, align 1
  ret i1 %29
}