; Function Attrs: mustprogress uwtable
define noundef zeroext i1 @_ZNK8QuantLib12UnitedStates8NercImpl13isBusinessDayERKNS_4DateE(ptr noundef nonnull align 8 dereferenceable(104) %this, ptr noundef nonnull align 8 dereferenceable(8) %date) unnamed_addr #0 align 2 {
entry:
  %0 = load i64, ptr %date, align 8, !tbaa !74
  %rem.i = srem i64 %0, 7
  %conv.i = trunc nsw i64 %rem.i to i32
  %cmp.i = icmp eq i64 %rem.i, 0
  %cond.i = select i1 %cmp.i, i32 7, i32 %conv.i
  %call.i.i = tail call noundef i32 @_ZNK8QuantLib4Date4yearEv(ptr noundef nonnull align 8 dereferenceable(8) %date)
  %call2.i.i = tail call noundef i64 @_ZN8QuantLib4Date10yearOffsetEi(i32 noundef %call.i.i)
  %sub.i.i = sub nsw i64 %0, %call2.i.i
  %conv.i.i = trunc i64 %sub.i.i to i32
  %call2.i = tail call noundef i32 @_ZNK8QuantLib4Date5monthEv(ptr noundef nonnull align 8 dereferenceable(8) %date)
  %call3.i = tail call noundef i32 @_ZNK8QuantLib4Date4yearEv(ptr noundef nonnull align 8 dereferenceable(8) %date)
  %call4.i = tail call noundef zeroext i1 @_ZN8QuantLib4Date6isLeapEi(i32 noundef %call3.i)
  %call5.i = tail call noundef i32 @_ZN8QuantLib4Date11monthOffsetENS_5MonthEb(i32 noundef %call2.i, i1 noundef zeroext %call4.i)
  %sub.i = sub nsw i32 %conv.i.i, %call5.i
  %call3 = tail call noundef i32 @_ZNK8QuantLib4Date5monthEv(ptr noundef nonnull align 8 dereferenceable(8) %date)
  %call4 = tail call noundef i32 @_ZNK8QuantLib4Date4yearEv(ptr noundef nonnull align 8 dereferenceable(8) %date)
  %call5 = tail call noundef zeroext i1 @_ZNK8QuantLib8Calendar11WesternImpl9isWeekendENS_7WeekdayE(ptr noundef nonnull align 8 dereferenceable(104) %this, i32 noundef %cond.i)
  br i1 %call5, label %cleanup, label %lor.lhs.false

lor.lhs.false:                                    ; preds = %entry
  %cmp = icmp eq i32 %sub.i, 1
  br i1 %cmp, label %land.lhs.true9, label %lor.lhs.false6

lor.lhs.false6:                                   ; preds = %lor.lhs.false
  %cmp7 = icmp eq i32 %sub.i, 2
  %cmp8 = icmp eq i32 %cond.i, 2
  %cmp10 = icmp eq i32 %call3, 1
  %1 = and i1 %cmp7, %cmp10
  %or.cond1 = and i1 %cmp8, %1
  br i1 %or.cond1, label %cleanup, label %lor.lhs.false6.split

lor.lhs.false6.split:                             ; preds = %lor.lhs.false6
  %cmp.i48 = icmp sgt i32 %call4, 1970
  br i1 %cmp.i48, label %if.then.i, label %if.else.i

if.then.i:                                        ; preds = %lor.lhs.false6.split
  %cmp1.i = icmp sgt i32 %sub.i, 24
  %cmp3.i = icmp eq i32 %call3, 5
  %2 = and i1 %cmp1.i, %cmp3.i
  %spec.select.i = and i1 %cmp8, %2
  br i1 %spec.select.i, label %cleanup, label %lor.lhs.false13

if.else.i:                                        ; preds = %lor.lhs.false6.split
  %cmp4.i = icmp eq i32 %sub.i, 30
  %cmp5.i = icmp eq i32 %sub.i, 31
  %or.cond1.i = and i1 %cmp8, %cmp5.i
  %or.cond121 = or i1 %cmp4.i, %or.cond1.i
  br i1 %or.cond121, label %lor.lhs.false11, label %lor.lhs.false8.i

lor.lhs.false8.i:                                 ; preds = %if.else.i
  %cmp9.i = icmp eq i32 %sub.i, 29
  %cmp11.i = icmp eq i32 %cond.i, 6
  %or.cond2.i = and i1 %cmp11.i, %cmp9.i
  br i1 %or.cond2.i, label %lor.lhs.false11, label %lor.lhs.false13

land.lhs.true9:                                   ; preds = %lor.lhs.false
  %cmp10.old = icmp eq i32 %call3, 1
  br i1 %cmp10.old, label %cleanup, label %lor.lhs.false15.thread96

lor.lhs.false11:                                  ; preds = %if.else.i, %lor.lhs.false8.i
  %cmp13.i = icmp eq i32 %call3, 5
  br i1 %cmp13.i, label %cleanup, label %if.end

lor.lhs.false15.thread96:                         ; preds = %land.lhs.true9
  %cmp1898 = icmp eq i32 %cond.i, 2
  br label %lor.lhs.false15.split

lor.lhs.false13:                                  ; preds = %lor.lhs.false8.i, %if.then.i
  %cmp14 = icmp eq i32 %sub.i, 4
  br i1 %cmp14, label %land.lhs.true19, label %lor.lhs.false15

lor.lhs.false15:                                  ; preds = %lor.lhs.false13
  %cmp16 = icmp eq i32 %sub.i, 5
  %cmp20 = icmp eq i32 %call3, 7
  %3 = and i1 %cmp16, %cmp20
  %or.cond5 = and i1 %cmp8, %3
  br i1 %or.cond5, label %cleanup, label %lor.lhs.false15.split

lor.lhs.false15.split:                            ; preds = %lor.lhs.false15.thread96, %lor.lhs.false15
  %cmp1882 = phi i1 [ %cmp8, %lor.lhs.false15 ], [ %cmp1898, %lor.lhs.false15.thread96 ]
  %cmp.i66 = icmp slt i32 %sub.i, 8
  %or.cond.i68 = and i1 %cmp.i66, %cmp1882
  %cmp2.i69 = icmp eq i32 %call3, 9
  %spec.select.i70 = and i1 %cmp2.i69, %or.cond.i68
  br i1 %spec.select.i70, label %cleanup, label %lor.lhs.false23

land.lhs.true19:                                  ; preds = %lor.lhs.false13
  %cmp20.old = icmp eq i32 %call3, 7
  %cmp2.i73 = icmp eq i32 %call3, 9
  %spec.select.i74 = and i1 %cmp8, %cmp2.i73
  %or.cond = or i1 %cmp20.old, %spec.select.i74
  br i1 %or.cond, label %cleanup, label %if.end

lor.lhs.false23:                                  ; preds = %lor.lhs.false15.split
  %4 = add i32 %sub.i, -22
  %or.cond7 = icmp ult i32 %4, 7
  %cmp28 = icmp eq i32 %cond.i, 5
  %or.cond9 = and i1 %cmp28, %or.cond7
  %cmp30 = icmp eq i32 %call3, 11
  %or.cond11 = and i1 %cmp30, %or.cond9
  br i1 %or.cond11, label %cleanup, label %lor.lhs.false31

lor.lhs.false31:                                  ; preds = %lor.lhs.false23
  %cmp32 = icmp eq i32 %sub.i, 25
  br i1 %cmp32, label %land.lhs.true37, label %lor.lhs.false33

lor.lhs.false33:                                  ; preds = %lor.lhs.false31
  %cmp34 = icmp eq i32 %sub.i, 26
  %cmp36 = icmp eq i32 %cond.i, 2
  %or.cond13 = and i1 %cmp36, %cmp34
  %cmp38 = icmp eq i32 %call3, 12
  %or.cond15 = and i1 %cmp38, %or.cond13
  br i1 %or.cond15, label %cleanup, label %if.end

land.lhs.true37:                                  ; preds = %lor.lhs.false31
  %cmp38.old = icmp eq i32 %call3, 12
  br i1 %cmp38.old, label %cleanup, label %if.end

if.end:                                           ; preds = %land.lhs.true19, %lor.lhs.false11, %land.lhs.true37, %lor.lhs.false33
  br label %cleanup

cleanup:                                          ; preds = %lor.lhs.false15.split, %if.then.i, %entry, %land.lhs.true9, %lor.lhs.false11, %land.lhs.true19, %land.lhs.true37, %lor.lhs.false6, %lor.lhs.false15, %lor.lhs.false23, %lor.lhs.false33, %if.end
  %retval.0 = phi i1 [ true, %if.end ], [ false, %lor.lhs.false33 ], [ false, %lor.lhs.false23 ], [ false, %lor.lhs.false15 ], [ false, %lor.lhs.false6 ], [ false, %land.lhs.true37 ], [ false, %land.lhs.true19 ], [ false, %lor.lhs.false11 ], [ false, %land.lhs.true9 ], [ false, %entry ], [ false, %if.then.i ], [ false, %lor.lhs.false15.split ]
  ret i1 %retval.0
}